(dp0
S'benchmark_portfolios'
p1
ccopy_reg
_reconstructor
p2
(cpandas.core.frame
DataFrame
p3
c__builtin__
object
p4
Ntp5
Rp6
(dp7
S'_metadata'
p8
(lp9
sS'_typ'
p10
S'dataframe'
p11
sS'_data'
p12
g2
(cpandas.core.internals
BlockManager
p13
g4
Ntp14
Rp15
((lp16
cpandas.indexes.base
_new_Index
p17
(cpandas.indexes.base
Index
p18
(dp19
S'data'
p20
cnumpy.core.multiarray
_reconstruct
p21
(cnumpy
ndarray
p22
(I0
tp23
S'b'
p24
tp25
Rp26
(I1
(I10
tp27
cnumpy
dtype
p28
(S'O8'
p29
I0
I1
tp30
Rp31
(I3
S'|'
p32
NNNI-1
I-1
I63
tp33
bI00
(lp34
S'annualized_returns'
p35
aS'cash'
p36
aS'daily_pnl'
p37
aS'daily_returns'
p38
aS'market_value'
p39
aS'static_unit_net_value'
p40
aS'total_returns'
p41
aS'total_value'
p42
aS'unit_net_value'
p43
aS'units'
p44
atp45
bsS'name'
p46
Nstp47
Rp48
ag17
(g18
(dp49
g20
g21
(g22
(I0
tp50
g24
tp51
Rp52
(I1
(I1
tp53
g31
I00
(lp54
cdatetime
date
p55
(S'\x07\xe0\x0c\x01'
p56
tp57
Rp58
atp59
bsg46
S'date'
p60
stp61
Rp62
a(lp63
g21
(g22
(I0
tp64
g24
tp65
Rp66
(I1
(I10
I1
tp67
g28
(S'f8'
p68
I0
I1
tp69
Rp70
(I3
S'<'
p71
NNNI-1
I-1
I0
tp72
bI00
S'\x00\x00\x00\x00\x00\x00\x00\x00\\\x8f\xc2\xf5(\\f@\x00\x00\x00\x00\x00\x00\x00\x00\x00\x00\x00\x00\x00\x00\x00\x00\xb8\x1e\x85\xeb\xd1^\xf8@\x00\x00\x00\x00\x00\x00\xf0?\x00\x00\x00\x00\x00\x00\x00\x00\x00\x00\x00\x00\x00j\xf8@\x00\x00\x00\x00\x00\x00\xf0?\x00\x00\x00\x00\x00j\xf8@'
p73
tp74
ba(lp75
g17
(g18
(dp76
g20
g21
(g22
(I0
tp77
g24
tp78
Rp79
(I1
(I10
tp80
g31
I00
(lp81
g35
ag36
ag37
ag38
ag39
ag40
ag41
ag42
ag43
ag44
atp82
bsg46
Nstp83
Rp84
a(dp85
S'0.14.1'
p86
(dp87
S'axes'
p88
g16
sS'blocks'
p89
(lp90
(dp91
S'mgr_locs'
p92
c__builtin__
slice
p93
(I0
I10
I1
tp94
Rp95
sS'values'
p96
g66
sasstp97
bsbsS'stock_portfolios'
p98
g2
(g3
g4
Ntp99
Rp100
(dp101
g8
g9
sg10
g11
sg12
g2
(g13
g4
Ntp102
Rp103
((lp104
g17
(g18
(dp105
g20
g21
(g22
(I0
tp106
g24
tp107
Rp108
(I1
(I5
tp109
g31
I00
(lp110
S'dividend_receivable'
p111
ag39
aS'total_cash'
p112
ag42
aS'transaction_cost'
p113
atp114
bsg46
Nstp115
Rp116
acpandas.tseries.index
_new_DatetimeIndex
p117
(cpandas.tseries.index
DatetimeIndex
p118
(dp119
S'tz'
p120
NsS'freq'
p121
Nsg20
g21
(g22
(I0
tp122
g24
tp123
Rp124
(I1
(I1
tp125
g28
(S'M8'
p126
I0
I1
tp127
Rp128
(I4
S'<'
p129
NNNI-1
I-1
I0
((dp130
(S'ns'
p131
I1
I1
I1
tp132
tp133
tp134
bI00
S'\x00\x00\x10\x98\xbe\xf8\x8b\x14'
p135
tp136
bsg46
g60
stp137
Rp138
a(lp139
g21
(g22
(I0
tp140
g24
tp141
Rp142
(I1
(I2
I1
tp143
g70
I00
S'\x00\x00\x00\x00\x00j\xf8@\x00\x00\x00\x00\x00j\xf8@'
p144
tp145
bag21
(g22
(I0
tp146
g24
tp147
Rp148
(I1
(I3
I1
tp149
g28
(S'i8'
p150
I0
I1
tp151
Rp152
(I3
S'<'
p153
NNNI-1
I-1
I0
tp154
bI00
S'\x00\x00\x00\x00\x00\x00\x00\x00\x00\x00\x00\x00\x00\x00\x00\x00\x00\x00\x00\x00\x00\x00\x00\x00'
p155
tp156
ba(lp157
g17
(g18
(dp158
g20
g21
(g22
(I0
tp159
g24
tp160
Rp161
(I1
(I2
tp162
g31
I00
(lp163
g112
ag42
atp164
bsg46
Nstp165
Rp166
ag17
(g18
(dp167
g20
g21
(g22
(I0
tp168
g24
tp169
Rp170
(I1
(I3
tp171
g31
I00
(lp172
g111
ag39
ag113
atp173
bsg46
Nstp174
Rp175
a(dp176
g86
(dp177
g88
g104
sg89
(lp178
(dp179
g92
g93
(I2
I4
I1
tp180
Rp181
sg96
g142
sa(dp182
g92
g21
(g22
(I0
tp183
g24
tp184
Rp185
(I1
(I3
tp186
g152
I00
S'\x00\x00\x00\x00\x00\x00\x00\x00\x01\x00\x00\x00\x00\x00\x00\x00\x04\x00\x00\x00\x00\x00\x00\x00'
p187
tp188
bsg96
g148
sasstp189
bsbsS'trades'
p190
g2
(g3
g4
Ntp191
Rp192
(dp193
g8
g9
sg10
g11
sg12
g2
(g13
g4
Ntp194
Rp195
((lp196
g17
(g18
(dp197
g20
g21
(g22
(I0
tp198
g24
tp199
Rp200
(I1
(I0
tp201
g31
I00
(lp202
tp203
bsg46
Nstp204
Rp205
ag17
(g18
(dp206
g20
g21
(g22
(I0
tp207
g24
tp208
Rp209
(I1
(I0
tp210
g31
I00
(lp211
tp212
bsg46
Nstp213
Rp214
a(lp215
(lp216
(dp217
g86
(dp218
g88
g196
sg89
(lp219
sstp220
bsbsS'stock_positions'
p221
g2
(g3
g4
Ntp222
Rp223
(dp224
g8
g9
sg10
g11
sg12
g2
(g13
g4
Ntp225
Rp226
((lp227
g17
(g18
(dp228
g20
g21
(g22
(I0
tp229
g24
tp230
Rp231
(I1
(I0
tp232
g31
I00
(lp233
tp234
bsg46
Nstp235
Rp236
ag17
(g18
(dp237
g20
g21
(g22
(I0
tp238
g24
tp239
Rp240
(I1
(I0
tp241
g31
I00
(lp242
tp243
bsg46
Nstp244
Rp245
a(lp246
(lp247
(dp248
g86
(dp249
g88
g227
sg89
(lp250
sstp251
bsbsS'total_portfolios'
p252
g2
(g3
g4
Ntp253
Rp254
(dp255
g8
g9
sg10
g11
sg12
g2
(g13
g4
Ntp256
Rp257
((lp258
g17
(g18
(dp259
g20
g21
(g22
(I0
tp260
g24
tp261
Rp262
(I1
(I10
tp263
g31
I00
(lp264
g35
ag36
ag37
ag38
ag39
ag40
ag41
ag42
ag43
ag44
atp265
bsg46
Nstp266
Rp267
ag117
(g118
(dp268
g120
Nsg121
Nsg20
g21
(g22
(I0
tp269
g24
tp270
Rp271
(I1
(I1
tp272
g28
(S'M8'
p273
I0
I1
tp274
Rp275
(I4
S'<'
p276
NNNI-1
I-1
I0
((dp277
(S'ns'
p278
I1
I1
I1
tp279
tp280
tp281
bI00
S'\x00\x00\x10\x98\xbe\xf8\x8b\x14'
p282
tp283
bsg46
g60
stp284
Rp285
a(lp286
g21
(g22
(I0
tp287
g24
tp288
Rp289
(I1
(I9
I1
tp290
g70
I00
S'\x00\x00\x00\x00\x00\x00\x00\x00\x00\x00\x00\x00\x00j\xf8@\x00\x00\x00\x00\x00\x00\x00\x00\x00\x00\x00\x00\x00\x00\x00\x00\x00\x00\x00\x00\x00\x00\xf0?\x00\x00\x00\x00\x00\x00\x00\x00\x00\x00\x00\x00\x00j\xf8@\x00\x00\x00\x00\x00\x00\xf0?\x00\x00\x00\x00\x00j\xf8@'
p291
tp292
bag21
(g22
(I0
tp293
g24
tp294
Rp295
(I1
(I1
I1
tp296
g152
I00
S'\x00\x00\x00\x00\x00\x00\x00\x00'
p297
tp298
ba(lp299
g17
(g18
(dp300
g20
g21
(g22
(I0
tp301
g24
tp302
Rp303
(I1
(I9
tp304
g31
I00
(lp305
g35
ag36
ag37
ag38
ag40
ag41
ag42
ag43
ag44
atp306
bsg46
Nstp307
Rp308
ag17
(g18
(dp309
g20
g21
(g22
(I0
tp310
g24
tp311
Rp312
(I1
(I1
tp313
g31
I00
(lp314
g39
atp315
bsg46
Nstp316
Rp317
a(dp318
g86
(dp319
g88
g258
sg89
(lp320
(dp321
g92
g21
(g22
(I0
tp322
g24
tp323
Rp324
(I1
(I9
tp325
g152
I00
S'\x00\x00\x00\x00\x00\x00\x00\x00\x01\x00\x00\x00\x00\x00\x00\x00\x02\x00\x00\x00\x00\x00\x00\x00\x03\x00\x00\x00\x00\x00\x00\x00\x05\x00\x00\x00\x00\x00\x00\x00\x06\x00\x00\x00\x00\x00\x00\x00\x07\x00\x00\x00\x00\x00\x00\x00\x08\x00\x00\x00\x00\x00\x00\x00\t\x00\x00\x00\x00\x00\x00\x00'
p326
tp327
bsg96
g289
sa(dp328
g92
g93
(I4
I5
I1
tp329
Rp330
sg96
g295
sasstp331
bsbsS'summary'
p332
(dp333
g42
F100000.0
sS'run_type'
p334
S'BACKTEST'
p335
sS'downside_risk'
p336
F0.0
sS'strategy_file'
p337
S'./buy_and_hold.py'
p338
sS'end_date'
p339
S'2016-12-01'
p340
sS'max_drawdown'
p341
F0.0
sg43
F1.0
sS'beta'
p342
Fnan
sS'alpha'
p343
Fnan
sS'benchmark_annualized_returns'
p344
F0.0
sS'volatility'
p345
F0.0
sg35
F0.0
sS'tracking_error'
p346
F0.0
sS'sortino'
p347
Fnan
sg36
F100000.0
sS'securities'
p348
(lp349
S'stock'
p350
asS'strategy_name'
p351
S'buy_and_hold'
p352
sS'information_ratio'
p353
Fnan
sg41
F0.0
sS'future_starting_cash'
p354
I0
sS'sharpe'
p355
Fnan
sg44
F100000.0
sS'benchmark_total_returns'
p356
F0.0
sS'stock_starting_cash'
p357
F100000.0
sS'start_date'
p358
S'2016-12-01'
p359
ss.